target datalayout = "e-m:e-p270:32:32-p271:32:32-p272:64:64-i64:64-i128:128-f80:128-n8:16:32:64-S128"
target triple = "x86_64-pc-linux-gnu"

%struct.jpeg_compress_struct = type { ptr, ptr, ptr, ptr, i32, i32, ptr, i32, i32, i32, i32, double, i32, i32, i32, ptr, [4 x ptr], [4 x ptr], [4 x ptr], [16 x i8], [16 x i8], [16 x i8], i32, ptr, i32, i32, i32, i32, i32, i32, i32, i32, i32, i8, i8, i8, i16, i16, i32, i32, i32, i32, i32, i32, i32, [4 x ptr], i32, i32, i32, [10 x i32], i32, i32, i32, i32, ptr, ptr, ptr, ptr, ptr, ptr, ptr, ptr, ptr, ptr, i32 }
%struct.jpeg_destination_mgr = type { ptr, i64, ptr, ptr, ptr }
%struct.jpeg_error_mgr = type { ptr, ptr, ptr, ptr, ptr, i32, %union.anon, i32, i64, ptr, i32, ptr, i32, i32 }
%union.anon = type { [8 x i32], [48 x i8] }
%struct.my_destination_mgr = type { %struct.jpeg_destination_mgr, ptr, ptr }

; Function Attrs: nounwind uwtable
define internal void @term_destination(ptr noundef %0) #0 {
  %2 = alloca ptr, align 8
  %3 = alloca ptr, align 8
  %4 = alloca i64, align 8
  store ptr %0, ptr %2, align 8, !tbaa !3
  call void @llvm.lifetime.start.p0(i64 8, ptr %3) #6
  %5 = load ptr, ptr %2, align 8, !tbaa !3
  %6 = getelementptr inbounds nuw %struct.jpeg_compress_struct, ptr %5, i32 0, i32 6
  %7 = load ptr, ptr %6, align 8, !tbaa !10
  store ptr %7, ptr %3, align 8, !tbaa !40
  call void @llvm.lifetime.start.p0(i64 8, ptr %4) #6
  %8 = load ptr, ptr %3, align 8, !tbaa !40
  %9 = getelementptr inbounds nuw %struct.my_destination_mgr, ptr %8, i32 0, i32 0
  %10 = getelementptr inbounds nuw %struct.jpeg_destination_mgr, ptr %9, i32 0, i32 1
  %11 = load i64, ptr %10, align 8, !tbaa !48
  %12 = sub i64 4096, %11
  store i64 %12, ptr %4, align 8, !tbaa !49
  %13 = load i64, ptr %4, align 8, !tbaa !49
  %14 = icmp ugt i64 %13, 0
  br i1 %14, label %15, label %38

15:                                               ; preds = %1
  %16 = load ptr, ptr %3, align 8, !tbaa !40
  %17 = getelementptr inbounds nuw %struct.my_destination_mgr, ptr %16, i32 0, i32 2
  %18 = load ptr, ptr %17, align 8, !tbaa !46
  %19 = load i64, ptr %4, align 8, !tbaa !49
  %20 = load ptr, ptr %3, align 8, !tbaa !40
  %21 = getelementptr inbounds nuw %struct.my_destination_mgr, ptr %20, i32 0, i32 1
  %22 = load ptr, ptr %21, align 8, !tbaa !45
  %23 = call i64 @fwrite(ptr noundef %18, i64 noundef 1, i64 noundef %19, ptr noundef %22)
  %24 = load i64, ptr %4, align 8, !tbaa !49
  %25 = icmp ne i64 %23, %24
  br i1 %25, label %26, label %37

26:                                               ; preds = %15
  %27 = load ptr, ptr %2, align 8, !tbaa !3
  %28 = getelementptr inbounds nuw %struct.jpeg_compress_struct, ptr %27, i32 0, i32 0
  %29 = load ptr, ptr %28, align 8, !tbaa !35
  %30 = getelementptr inbounds nuw %struct.jpeg_error_mgr, ptr %29, i32 0, i32 5
  store i32 37, ptr %30, align 8, !tbaa !36
  %31 = load ptr, ptr %2, align 8, !tbaa !3
  %32 = getelementptr inbounds nuw %struct.jpeg_compress_struct, ptr %31, i32 0, i32 0
  %33 = load ptr, ptr %32, align 8, !tbaa !35
  %34 = getelementptr inbounds nuw %struct.jpeg_error_mgr, ptr %33, i32 0, i32 0
  %35 = load ptr, ptr %34, align 8, !tbaa !39
  %36 = load ptr, ptr %2, align 8, !tbaa !3
  call void %35(ptr noundef %36)
  br label %37

37:                                               ; preds = %26, %15
  br label %38

38:                                               ; preds = %37, %1
  %39 = load ptr, ptr %3, align 8, !tbaa !40
  %40 = getelementptr inbounds nuw %struct.my_destination_mgr, ptr %39, i32 0, i32 1
  %41 = load ptr, ptr %40, align 8, !tbaa !45
  %42 = call i32 @fflush(ptr noundef %41)
  %43 = load ptr, ptr %3, align 8, !tbaa !40
  %44 = getelementptr inbounds nuw %struct.my_destination_mgr, ptr %43, i32 0, i32 1
  %45 = load ptr, ptr %44, align 8, !tbaa !45
  %46 = call i32 @ferror(ptr noundef %45) #6
  %47 = icmp ne i32 %46, 0
  br i1 %47, label %48, label %59

48:                                               ; preds = %38
  %49 = load ptr, ptr %2, align 8, !tbaa !3
  %50 = getelementptr inbounds nuw %struct.jpeg_compress_struct, ptr %49, i32 0, i32 0
  %51 = load ptr, ptr %50, align 8, !tbaa !35
  %52 = getelementptr inbounds nuw %struct.jpeg_error_mgr, ptr %51, i32 0, i32 5
  store i32 37, ptr %52, align 8, !tbaa !36
  %53 = load ptr, ptr %2, align 8, !tbaa !3
  %54 = getelementptr inbounds nuw %struct.jpeg_compress_struct, ptr %53, i32 0, i32 0
  %55 = load ptr, ptr %54, align 8, !tbaa !35
  %56 = getelementptr inbounds nuw %struct.jpeg_error_mgr, ptr %55, i32 0, i32 0
  %57 = load ptr, ptr %56, align 8, !tbaa !39
  %58 = load ptr, ptr %2, align 8, !tbaa !3
  call void %57(ptr noundef %58)
  br label %59

59:                                               ; preds = %48, %38
  call void @llvm.lifetime.end.p0(i64 8, ptr %4) #6
  call void @llvm.lifetime.end.p0(i64 8, ptr %3) #6
  ret void
}