; Function Attrs: nounwind uwtable
define internal void @term_destination(ptr noundef %0) #0 {
  %2 = getelementptr inbounds nuw i8, ptr %0, i64 40
  %3 = load ptr, ptr %2, align 8, !tbaa !3
  %4 = getelementptr inbounds nuw i8, ptr %3, i64 8
  %5 = load i64, ptr %4, align 8, !tbaa !44
  %.not = icmp eq i64 %5, 4096
  br i1 %.not, label %17, label %6

6:                                                ; preds = %1
  %7 = sub i64 4096, %5
  %8 = getelementptr inbounds nuw i8, ptr %3, i64 48
  %9 = load ptr, ptr %8, align 8, !tbaa !42
  %10 = getelementptr inbounds nuw i8, ptr %3, i64 40
  %11 = load ptr, ptr %10, align 8, !tbaa !41
  %12 = tail call i64 @fwrite(ptr noundef %9, i64 noundef 1, i64 noundef %7, ptr noundef %11)
  %.not14 = icmp eq i64 %12, %7
  br i1 %.not14, label %17, label %13

13:                                               ; preds = %6
  %14 = load ptr, ptr %0, align 8, !tbaa !31
  %15 = getelementptr inbounds nuw i8, ptr %14, i64 40
  store i32 37, ptr %15, align 8, !tbaa !32
  %16 = load ptr, ptr %14, align 8, !tbaa !35
  tail call void %16(ptr noundef nonnull %0) #8
  br label %17

17:                                               ; preds = %6, %13, %1
  %18 = getelementptr inbounds nuw i8, ptr %3, i64 40
  %19 = load ptr, ptr %18, align 8, !tbaa !41
  %20 = tail call i32 @fflush(ptr noundef %19)
  %21 = load ptr, ptr %18, align 8, !tbaa !41
  %22 = tail call i32 @ferror(ptr noundef %21) #8
  %.not15 = icmp eq i32 %22, 0
  br i1 %.not15, label %27, label %23

23:                                               ; preds = %17
  %24 = load ptr, ptr %0, align 8, !tbaa !31
  %25 = getelementptr inbounds nuw i8, ptr %24, i64 40
  store i32 37, ptr %25, align 8, !tbaa !32
  %26 = load ptr, ptr %24, align 8, !tbaa !35
  tail call void %26(ptr noundef nonnull %0) #8
  br label %27

27:                                               ; preds = %23, %17
  ret void
}